; Function Attrs: nofree norecurse nosync nounwind memory(argmem: readwrite) uwtable
define void @ff_h264_idct_add16_8_c(ptr noundef captures(none) %0, ptr noundef readonly captures(none) %1, ptr noundef captures(none) %2, i32 noundef %3, ptr noundef readonly captures(none) %4) local_unnamed_addr #0 {
  %6 = sext i32 %3 to i64
  br label %7

7:                                                ; preds = %5, %ff_h264_idct_dc_add_8_c.exit
  %indvars.iv = phi i64 [ 0, %5 ], [ %indvars.iv.next, %ff_h264_idct_dc_add_8_c.exit ]
  %8 = getelementptr inbounds nuw [51 x i8], ptr @scan8, i64 0, i64 %indvars.iv
  %9 = load i8, ptr %8, align 1, !tbaa !10
  %10 = zext i8 %9 to i64
  %11 = getelementptr inbounds nuw i8, ptr %4, i64 %10
  %12 = load i8, ptr %11, align 1, !tbaa !10
  switch i8 %12, label %._crit_edge [
    i8 0, label %ff_h264_idct_dc_add_8_c.exit
    i8 1, label %13
  ]

._crit_edge:                                      ; preds = %7
  %.pre = shl nuw nsw i64 %indvars.iv, 4
  br label %35

13:                                               ; preds = %7
  %14 = shl nuw nsw i64 %indvars.iv, 4
  %15 = getelementptr inbounds nuw i16, ptr %2, i64 %14
  %16 = load i16, ptr %15, align 2, !tbaa !4
  %.not20 = icmp eq i16 %16, 0
  br i1 %.not20, label %35, label %17

17:                                               ; preds = %13
  %18 = getelementptr inbounds nuw i32, ptr %1, i64 %indvars.iv
  %19 = load i32, ptr %18, align 4, !tbaa !18
  %20 = sext i32 %19 to i64
  %21 = getelementptr inbounds i8, ptr %0, i64 %20
  %22 = sext i16 %16 to i32
  %23 = add nsw i32 %22, 32
  %24 = ashr i32 %23, 6
  store i16 0, ptr %15, align 2, !tbaa !4
  br label %.preheader.i

.preheader.i:                                     ; preds = %32, %17
  %.01519.i = phi ptr [ %21, %17 ], [ %33, %32 ]
  %.01618.i = phi i32 [ 0, %17 ], [ %34, %32 ]
  br label %25

25:                                               ; preds = %25, %.preheader.i
  %indvars.iv.i = phi i64 [ 0, %.preheader.i ], [ %indvars.iv.next.i, %25 ]
  %26 = getelementptr inbounds nuw i8, ptr %.01519.i, i64 %indvars.iv.i
  %27 = load i8, ptr %26, align 1, !tbaa !10
  %28 = zext i8 %27 to i32
  %29 = add nsw i32 %24, %28
  %.not.i.i = icmp ult i32 %29, 256
  %isnotneg.i.i = icmp sgt i32 %29, -1
  %30 = sext i1 %isnotneg.i.i to i8
  %31 = trunc nuw i32 %29 to i8
  %.0.i.i = select i1 %.not.i.i, i8 %31, i8 %30
  store i8 %.0.i.i, ptr %26, align 1, !tbaa !10
  %indvars.iv.next.i = add nuw nsw i64 %indvars.iv.i, 1
  %exitcond.not.i = icmp eq i64 %indvars.iv.next.i, 4
  br i1 %exitcond.not.i, label %32, label %25, !llvm.loop !14

32:                                               ; preds = %25
  %33 = getelementptr inbounds i8, ptr %.01519.i, i64 %6
  %34 = add nuw nsw i32 %.01618.i, 1
  %exitcond21.not.i = icmp eq i32 %34, 4
  br i1 %exitcond21.not.i, label %ff_h264_idct_dc_add_8_c.exit, label %.preheader.i, !llvm.loop !15

35:                                               ; preds = %._crit_edge, %13
  %.pre-phi = phi i64 [ %.pre, %._crit_edge ], [ %14, %13 ]
  %36 = getelementptr inbounds nuw i32, ptr %1, i64 %indvars.iv
  %37 = load i32, ptr %36, align 4, !tbaa !18
  %38 = sext i32 %37 to i64
  %39 = getelementptr inbounds i8, ptr %0, i64 %38
  %40 = getelementptr inbounds nuw i16, ptr %2, i64 %.pre-phi
  tail call void @ff_h264_idct_add_8_c(ptr noundef %39, ptr noundef %40, i32 noundef %3)
  br label %ff_h264_idct_dc_add_8_c.exit

ff_h264_idct_dc_add_8_c.exit:                     ; preds = %32, %7, %35
  %indvars.iv.next = add nuw nsw i64 %indvars.iv, 1
  %exitcond.not = icmp eq i64 %indvars.iv.next, 16
  br i1 %exitcond.not, label %41, label %7, !llvm.loop !20

41:                                               ; preds = %ff_h264_idct_dc_add_8_c.exit
  ret void
}